; Function Attrs: mustprogress uwtable
define hidden void @_ZN6Assimp11FBXExporter15WriteModelNodesERNS_12StreamWriterILb0ELb0EEEPK6aiNodelRKSt13unordered_setIS6_St4hashIS6_ESt8equal_toIS6_ESaIS6_EE(ptr noundef nonnull align 8 dereferenceable(264) %0, ptr noundef nonnull align 8 dereferenceable(56) %1, ptr noundef %2, i64 noundef %3, ptr noundef nonnull align 8 dereferenceable(56) %4) local_unnamed_addr #3 align 2 personality ptr @__gxx_personality_v0 {
  %6 = alloca %"class.std::vector.183", align 8
  call void @llvm.lifetime.start.p0(i64 24, ptr nonnull %6) #34
  call void @llvm.memset.p0.i64(ptr noundef nonnull align 8 dereferenceable(24) %6, i8 0, i64 24, i1 false)
  invoke void @_ZN6Assimp11FBXExporter15WriteModelNodesERNS_12StreamWriterILb0ELb0EEEPK6aiNodelRKSt13unordered_setIS6_St4hashIS6_ESt8equal_toIS6_ESaIS6_EERSt6vectorISt4pairINSt7__cxx1112basic_stringIcSt11char_traitsIcESaIcEEE10aiVector3tIfEESaISQ_EE(ptr noundef nonnull align 8 dereferenceable(264) %0, ptr noundef nonnull align 8 dereferenceable(56) %1, ptr noundef %2, i64 noundef %3, ptr noundef nonnull align 8 dereferenceable(56) %4, ptr noundef nonnull align 8 dereferenceable(24) %6)
          to label %7 unwind label %27

7:                                                ; preds = %5
  %8 = load ptr, ptr %6, align 8
  %9 = getelementptr inbounds nuw i8, ptr %6, i64 8
  %10 = load ptr, ptr %9, align 8
  %.not4.i.i.i.i = icmp eq ptr %8, %10
  br i1 %.not4.i.i.i.i, label %_ZSt8_DestroyIPSt4pairINSt7__cxx1112basic_stringIcSt11char_traitsIcESaIcEEE10aiVector3tIfEES9_EvT_SB_RSaIT0_E.exit.i, label %.lr.ph.i.i.i.i

.lr.ph.i.i.i.i:                                   ; preds = %7, %_ZSt8_DestroyISt4pairINSt7__cxx1112basic_stringIcSt11char_traitsIcESaIcEEE10aiVector3tIfEEEvPT_.exit.i.i.i.i
  %.05.i.i.i.i = phi ptr [ %19, %_ZSt8_DestroyISt4pairINSt7__cxx1112basic_stringIcSt11char_traitsIcESaIcEEE10aiVector3tIfEEEvPT_.exit.i.i.i.i ], [ %8, %7 ]
  %11 = load ptr, ptr %.05.i.i.i.i, align 8
  %12 = getelementptr inbounds nuw i8, ptr %.05.i.i.i.i, i64 16
  %13 = icmp eq ptr %11, %12
  br i1 %13, label %_ZNKSt7__cxx1112basic_stringIcSt11char_traitsIcESaIcEE11_M_is_localEv.exit.thread.i.i.i.i.i.i.i.i, label %_ZNKSt7__cxx1112basic_stringIcSt11char_traitsIcESaIcEE11_M_is_localEv.exit.i.i.i.i.i.i.i.i

_ZNKSt7__cxx1112basic_stringIcSt11char_traitsIcESaIcEE11_M_is_localEv.exit.thread.i.i.i.i.i.i.i.i: ; preds = %.lr.ph.i.i.i.i
  %14 = getelementptr inbounds nuw i8, ptr %.05.i.i.i.i, i64 8
  %15 = load i64, ptr %14, align 8
  %16 = icmp ult i64 %15, 16
  call void @llvm.assume(i1 %16)
  br label %_ZSt8_DestroyISt4pairINSt7__cxx1112basic_stringIcSt11char_traitsIcESaIcEEE10aiVector3tIfEEEvPT_.exit.i.i.i.i

_ZNKSt7__cxx1112basic_stringIcSt11char_traitsIcESaIcEE11_M_is_localEv.exit.i.i.i.i.i.i.i.i: ; preds = %.lr.ph.i.i.i.i
  %17 = load i64, ptr %12, align 8
  %18 = add i64 %17, 1
  call void @_ZdlPvm(ptr noundef %11, i64 noundef %18) #35
  br label %_ZSt8_DestroyISt4pairINSt7__cxx1112basic_stringIcSt11char_traitsIcESaIcEEE10aiVector3tIfEEEvPT_.exit.i.i.i.i

_ZSt8_DestroyISt4pairINSt7__cxx1112basic_stringIcSt11char_traitsIcESaIcEEE10aiVector3tIfEEEvPT_.exit.i.i.i.i: ; preds = %_ZNKSt7__cxx1112basic_stringIcSt11char_traitsIcESaIcEE11_M_is_localEv.exit.i.i.i.i.i.i.i.i, %_ZNKSt7__cxx1112basic_stringIcSt11char_traitsIcESaIcEE11_M_is_localEv.exit.thread.i.i.i.i.i.i.i.i
  %19 = getelementptr inbounds nuw i8, ptr %.05.i.i.i.i, i64 48
  %.not.i.i.i.i = icmp eq ptr %19, %10
  br i1 %.not.i.i.i.i, label %_ZSt8_DestroyIPSt4pairINSt7__cxx1112basic_stringIcSt11char_traitsIcESaIcEEE10aiVector3tIfEES9_EvT_SB_RSaIT0_E.exitthread-pre-split.i, label %.lr.ph.i.i.i.i, !llvm.loop !213

_ZSt8_DestroyIPSt4pairINSt7__cxx1112basic_stringIcSt11char_traitsIcESaIcEEE10aiVector3tIfEES9_EvT_SB_RSaIT0_E.exitthread-pre-split.i: ; preds = %_ZSt8_DestroyISt4pairINSt7__cxx1112basic_stringIcSt11char_traitsIcESaIcEEE10aiVector3tIfEEEvPT_.exit.i.i.i.i
  %.pr.i = load ptr, ptr %6, align 8
  br label %_ZSt8_DestroyIPSt4pairINSt7__cxx1112basic_stringIcSt11char_traitsIcESaIcEEE10aiVector3tIfEES9_EvT_SB_RSaIT0_E.exit.i

_ZSt8_DestroyIPSt4pairINSt7__cxx1112basic_stringIcSt11char_traitsIcESaIcEEE10aiVector3tIfEES9_EvT_SB_RSaIT0_E.exit.i: ; preds = %_ZSt8_DestroyIPSt4pairINSt7__cxx1112basic_stringIcSt11char_traitsIcESaIcEEE10aiVector3tIfEES9_EvT_SB_RSaIT0_E.exitthread-pre-split.i, %7
  %20 = phi ptr [ %.pr.i, %_ZSt8_DestroyIPSt4pairINSt7__cxx1112basic_stringIcSt11char_traitsIcESaIcEEE10aiVector3tIfEES9_EvT_SB_RSaIT0_E.exitthread-pre-split.i ], [ %8, %7 ]
  %.not.i.i.i = icmp eq ptr %20, null
  br i1 %.not.i.i.i, label %_ZNSt6vectorISt4pairINSt7__cxx1112basic_stringIcSt11char_traitsIcESaIcEEE10aiVector3tIfEESaIS9_EED2Ev.exit, label %21

21:                                               ; preds = %_ZSt8_DestroyIPSt4pairINSt7__cxx1112basic_stringIcSt11char_traitsIcESaIcEEE10aiVector3tIfEES9_EvT_SB_RSaIT0_E.exit.i
  %22 = getelementptr inbounds nuw i8, ptr %6, i64 16
  %23 = load ptr, ptr %22, align 8
  %24 = ptrtoint ptr %23 to i64
  %25 = ptrtoint ptr %20 to i64
  %26 = sub i64 %24, %25
  call void @_ZdlPvm(ptr noundef nonnull %20, i64 noundef %26) #35
  br label %_ZNSt6vectorISt4pairINSt7__cxx1112basic_stringIcSt11char_traitsIcESaIcEEE10aiVector3tIfEESaIS9_EED2Ev.exit

_ZNSt6vectorISt4pairINSt7__cxx1112basic_stringIcSt11char_traitsIcESaIcEEE10aiVector3tIfEESaIS9_EED2Ev.exit: ; preds = %_ZSt8_DestroyIPSt4pairINSt7__cxx1112basic_stringIcSt11char_traitsIcESaIcEEE10aiVector3tIfEES9_EvT_SB_RSaIT0_E.exit.i, %21
  call void @llvm.lifetime.end.p0(i64 24, ptr nonnull %6) #34
  ret void

27:                                               ; preds = %5
  %28 = landingpad { ptr, i32 }
          cleanup
  call void @_ZNSt6vectorISt4pairINSt7__cxx1112basic_stringIcSt11char_traitsIcESaIcEEE10aiVector3tIfEESaIS9_EED2Ev(ptr noundef nonnull align 8 dereferenceable(24) %6) #34
  call void @llvm.lifetime.end.p0(i64 24, ptr nonnull %6) #34
  resume { ptr, i32 } %28
}